target datalayout = "e-m:e-p270:32:32-p271:32:32-p272:64:64-i64:64-i128:128-f80:128-n8:16:32:64-S128"
target triple = "x86_64-pc-linux-gnu"

%"class.llvm::StringRef" = type { ptr, i64 }
%"class.llvm::MachinePassRegistryNode" = type { ptr, %"class.llvm::StringRef", %"class.llvm::StringRef", ptr }
%"class.llvm::MachinePassRegistry" = type { ptr, ptr, ptr }

@_ZN4llvm20RegisterRegAllocBaseIN12_GLOBAL__N_119RVVRegisterRegAllocEE8RegistryE = internal global %"class.llvm::MachinePassRegistry" zeroinitializer, align 8

; Function Attrs: mustprogress nounwind uwtable
define linkonce_odr hidden noundef ptr @_ZN4llvm23MachinePassRegistryNodeIPFPNS_12FunctionPassEvEE14getNextAddressEv(ptr noundef nonnull align 8 dereferenceable(48) %0) #1 comdat align 2 {
  %2 = alloca ptr, align 8
  store ptr %0, ptr %2, align 8
  %3 = load ptr, ptr %2, align 8
  %4 = getelementptr inbounds nuw %"class.llvm::MachinePassRegistryNode", ptr %3, i32 0, i32 0
  ret ptr %4
}

; Function Attrs: mustprogress nounwind uwtable
define linkonce_odr hidden noundef ptr @_ZNK4llvm23MachinePassRegistryNodeIPFPNS_12FunctionPassEvEE7getNextEv(ptr noundef nonnull align 8 dereferenceable(48) %0) #1 comdat align 2 {
  %2 = alloca ptr, align 8
  store ptr %0, ptr %2, align 8
  %3 = load ptr, ptr %2, align 8
  %4 = getelementptr inbounds nuw %"class.llvm::MachinePassRegistryNode", ptr %3, i32 0, i32 0
  %5 = load ptr, ptr %4, align 8
  ret ptr %5
}

; Function Attrs: mustprogress nounwind uwtable
define linkonce_odr hidden { ptr, i64 } @_ZNK4llvm23MachinePassRegistryNodeIPFPNS_12FunctionPassEvEE7getNameEv(ptr noundef nonnull align 8 dereferenceable(48) %0) #1 comdat align 2 {
  %2 = alloca %"class.llvm::StringRef", align 8
  %3 = alloca ptr, align 8
  store ptr %0, ptr %3, align 8
  %4 = load ptr, ptr %3, align 8
  %5 = getelementptr inbounds nuw %"class.llvm::MachinePassRegistryNode", ptr %4, i32 0, i32 1
  call void @llvm.memcpy.p0.p0.i64(ptr align 8 %2, ptr align 8 %5, i64 16, i1 false)
  %6 = load { ptr, i64 }, ptr %2, align 8
  ret { ptr, i64 } %6
}

; Function Attrs: mustprogress nounwind uwtable
define linkonce_odr hidden void @_ZN4llvm19MachinePassRegistryIPFPNS_12FunctionPassEvEE6RemoveEPNS_23MachinePassRegistryNodeIS4_EE(ptr noundef nonnull align 8 dereferenceable(24) %0, ptr noundef %1) #1 comdat align 2 {
  %3 = alloca ptr, align 8
  %4 = alloca ptr, align 8
  %5 = alloca ptr, align 8
  %6 = alloca %"class.llvm::StringRef", align 8
  store ptr %0, ptr %3, align 8
  store ptr %1, ptr %4, align 8
  %7 = load ptr, ptr %3, align 8
  %8 = getelementptr inbounds nuw %"class.llvm::MachinePassRegistry", ptr %7, i32 0, i32 0
  store ptr %8, ptr %5, align 8
  br label %9

9:                                                ; preds = %44, %2
  %10 = load ptr, ptr %5, align 8
  %11 = load ptr, ptr %10, align 8
  %12 = icmp ne ptr %11, null
  br i1 %12, label %13, label %48

13:                                               ; preds = %9
  %14 = load ptr, ptr %5, align 8
  %15 = load ptr, ptr %14, align 8
  %16 = load ptr, ptr %4, align 8
  %17 = icmp eq ptr %15, %16
  br i1 %17, label %18, label %43

18:                                               ; preds = %13
  %19 = getelementptr inbounds nuw %"class.llvm::MachinePassRegistry", ptr %7, i32 0, i32 2
  %20 = load ptr, ptr %19, align 8
  %21 = icmp ne ptr %20, null
  br i1 %21, label %22, label %38

22:                                               ; preds = %18
  %23 = getelementptr inbounds nuw %"class.llvm::MachinePassRegistry", ptr %7, i32 0, i32 2
  %24 = load ptr, ptr %23, align 8
  %25 = load ptr, ptr %4, align 8
  %26 = call { ptr, i64 } @_ZNK4llvm23MachinePassRegistryNodeIPFPNS_12FunctionPassEvEE7getNameEv(ptr noundef nonnull align 8 dereferenceable(48) %25)
  %27 = getelementptr inbounds nuw { ptr, i64 }, ptr %6, i32 0, i32 0
  %28 = extractvalue { ptr, i64 } %26, 0
  store ptr %28, ptr %27, align 8
  %29 = getelementptr inbounds nuw { ptr, i64 }, ptr %6, i32 0, i32 1
  %30 = extractvalue { ptr, i64 } %26, 1
  store i64 %30, ptr %29, align 8
  %31 = getelementptr inbounds nuw { ptr, i64 }, ptr %6, i32 0, i32 0
  %32 = load ptr, ptr %31, align 8
  %33 = getelementptr inbounds nuw { ptr, i64 }, ptr %6, i32 0, i32 1
  %34 = load i64, ptr %33, align 8
  %35 = load ptr, ptr %24, align 8
  %36 = getelementptr inbounds ptr, ptr %35, i64 4
  %37 = load ptr, ptr %36, align 8
  call void %37(ptr noundef nonnull align 8 dereferenceable(8) %24, ptr %32, i64 %34)
  br label %38

38:                                               ; preds = %22, %18
  %39 = load ptr, ptr %5, align 8
  %40 = load ptr, ptr %39, align 8
  %41 = call noundef ptr @_ZNK4llvm23MachinePassRegistryNodeIPFPNS_12FunctionPassEvEE7getNextEv(ptr noundef nonnull align 8 dereferenceable(48) %40)
  %42 = load ptr, ptr %5, align 8
  store ptr %41, ptr %42, align 8
  br label %48

43:                                               ; preds = %13
  br label %44

44:                                               ; preds = %43
  %45 = load ptr, ptr %5, align 8
  %46 = load ptr, ptr %45, align 8
  %47 = call noundef ptr @_ZN4llvm23MachinePassRegistryNodeIPFPNS_12FunctionPassEvEE14getNextAddressEv(ptr noundef nonnull align 8 dereferenceable(48) %46)
  store ptr %47, ptr %5, align 8
  br label %9, !llvm.loop !10

48:                                               ; preds = %38, %9
  ret void
}

; Function Attrs: mustprogress nounwind uwtable
define internal void @_ZN4llvm20RegisterRegAllocBaseIN12_GLOBAL__N_119RVVRegisterRegAllocEED2Ev(ptr noundef nonnull align 8 dereferenceable(48) %0) unnamed_addr #1 align 2 {
  %2 = alloca ptr, align 8
  store ptr %0, ptr %2, align 8
  %3 = load ptr, ptr %2, align 8
  call void @_ZN4llvm19MachinePassRegistryIPFPNS_12FunctionPassEvEE6RemoveEPNS_23MachinePassRegistryNodeIS4_EE(ptr noundef nonnull align 8 dereferenceable(24) @_ZN4llvm20RegisterRegAllocBaseIN12_GLOBAL__N_119RVVRegisterRegAllocEE8RegistryE, ptr noundef %3)
  ret void
}

; Function Attrs: mustprogress nounwind uwtable
define internal void @_ZN12_GLOBAL__N_119RVVRegisterRegAllocD2Ev(ptr noundef nonnull align 8 dereferenceable(48) %0) unnamed_addr #1 align 2 {
  %2 = alloca ptr, align 8
  store ptr %0, ptr %2, align 8
  %3 = load ptr, ptr %2, align 8
  call void @_ZN4llvm20RegisterRegAllocBaseIN12_GLOBAL__N_119RVVRegisterRegAllocEED2Ev(ptr noundef nonnull align 8 dereferenceable(48) %3) #2
  ret void
}