; Function Attrs: mustprogress nounwind uwtable
define internal void @_ZN12_GLOBAL__N_119RVVRegisterRegAllocD2Ev(ptr noundef nonnull readonly align 8 dereferenceable(48) %0) unnamed_addr #0 align 2 {
  br label %2

2:                                                ; preds = %4, %1
  %.0.i.i = phi ptr [ @_ZN4llvm20RegisterRegAllocBaseIN12_GLOBAL__N_119RVVRegisterRegAllocEE8RegistryE, %1 ], [ %3, %4 ]
  %3 = load ptr, ptr %.0.i.i, align 8
  %.not.i.i = icmp eq ptr %3, null
  br i1 %.not.i.i, label %_ZN4llvm20RegisterRegAllocBaseIN12_GLOBAL__N_119RVVRegisterRegAllocEED2Ev.exit, label %4

4:                                                ; preds = %2
  %5 = icmp eq ptr %3, %0
  br i1 %5, label %6, label %2, !llvm.loop !19

6:                                                ; preds = %4
  %7 = load ptr, ptr getelementptr inbounds nuw (i8, ptr @_ZN4llvm20RegisterRegAllocBaseIN12_GLOBAL__N_119RVVRegisterRegAllocEE8RegistryE, i64 16), align 8
  %.not11.i.i = icmp eq ptr %7, null
  br i1 %.not11.i.i, label %13, label %8

8:                                                ; preds = %6
  %9 = getelementptr inbounds nuw i8, ptr %0, i64 8
  %.sroa.0.0.copyload.i.i.i = load ptr, ptr %9, align 8
  %.sroa.2.0..sroa_idx.i.i.i = getelementptr inbounds i8, ptr %0, i64 16
  %.sroa.2.0.copyload.i.i.i = load i64, ptr %.sroa.2.0..sroa_idx.i.i.i, align 8
  %10 = load ptr, ptr %7, align 8
  %11 = getelementptr inbounds i8, ptr %10, i64 32
  %12 = load ptr, ptr %11, align 8
  tail call void %12(ptr noundef nonnull align 8 dereferenceable(8) %7, ptr %.sroa.0.0.copyload.i.i.i, i64 %.sroa.2.0.copyload.i.i.i) #24
  %.pre.i.i = load ptr, ptr %.0.i.i, align 8
  br label %13

13:                                               ; preds = %8, %6
  %14 = phi ptr [ %.pre.i.i, %8 ], [ %3, %6 ]
  %15 = load ptr, ptr %14, align 8
  store ptr %15, ptr %.0.i.i, align 8
  br label %_ZN4llvm20RegisterRegAllocBaseIN12_GLOBAL__N_119RVVRegisterRegAllocEED2Ev.exit

_ZN4llvm20RegisterRegAllocBaseIN12_GLOBAL__N_119RVVRegisterRegAllocEED2Ev.exit: ; preds = %2, %13
  ret void
}